target datalayout = "e-m:e-p270:32:32-p271:32:32-p272:64:64-i64:64-i128:128-f80:128-n8:16:32:64-S128"
target triple = "x86_64-unknown-linux-gnu"

; Function Attrs: nounwind sspstrong uwtable
define internal i32 @pmu_remove_event_map(ptr noundef %key, ptr noundef %value, ptr noundef %udata) #0 {
entry:
  %key.addr = alloca ptr, align 8
  %value.addr = alloca ptr, align 8
  %udata.addr = alloca ptr, align 8
  store ptr %key, ptr %key.addr, align 8
  store ptr %value, ptr %value.addr, align 8
  store ptr %udata, ptr %udata.addr, align 8
  %0 = load ptr, ptr %value.addr, align 8
  %1 = ptrtoint ptr %0 to i64
  %conv = trunc i64 %1 to i32
  %2 = load ptr, ptr %udata.addr, align 8
  %3 = ptrtoint ptr %2 to i64
  %conv1 = trunc i64 %3 to i32
  %cmp = icmp eq i32 %conv, %conv1
  %cond = select i1 %cmp, i32 1, i32 0
  ret i32 %cond
}