; Function Attrs: mustprogress nofree norecurse nosync nounwind sspstrong willreturn memory(none) uwtable
define internal range(i32 0, 2) i32 @pmu_remove_event_map(ptr readnone captures(none) %key, ptr noundef %value, ptr noundef %udata) #3 {
entry:
  %0 = ptrtoint ptr %value to i64
  %conv = trunc i64 %0 to i32
  %1 = ptrtoint ptr %udata to i64
  %conv1 = trunc i64 %1 to i32
  %cmp = icmp eq i32 %conv, %conv1
  %cond = zext i1 %cmp to i32
  ret i32 %cond
}